target datalayout = "e-m:e-p270:32:32-p271:32:32-p272:64:64-i64:64-i128:128-f80:128-n8:16:32:64-S128"
target triple = "x86_64-pc-linux-gnu"

@Truth6 = internal global [6 x i64] [i64 -6148914691236517206, i64 -3689348814741910324, i64 -1085102592571150096, i64 -71777214294589696, i64 -281470681808896, i64 -4294967296], align 16

; Function Attrs: inlinehint nounwind uwtable
define internal i32 @If_CluWordNum(i32 noundef %0) #3 {
  %2 = alloca i32, align 4
  store i32 %0, ptr %2, align 4, !tbaa !3
  %3 = load i32, ptr %2, align 4, !tbaa !3
  %4 = icmp sle i32 %3, 6
  br i1 %4, label %5, label %6

5:                                                ; preds = %1
  br label %10

6:                                                ; preds = %1
  %7 = load i32, ptr %2, align 4, !tbaa !3
  %8 = sub nsw i32 %7, 6
  %9 = shl i32 1, %8
  br label %10

10:                                               ; preds = %6, %5
  %11 = phi i32 [ 1, %5 ], [ %9, %6 ]
  ret i32 %11
}

; Function Attrs: nounwind uwtable
define void @If_CluChangePhase(ptr noundef %0, i32 noundef %1, i32 noundef %2) #0 {
  %4 = alloca ptr, align 8
  %5 = alloca i32, align 4
  %6 = alloca i32, align 4
  %7 = alloca i32, align 4
  %8 = alloca i32, align 4
  %9 = alloca i32, align 4
  %10 = alloca i64, align 8
  %11 = alloca i32, align 4
  %12 = alloca i32, align 4
  %13 = alloca i32, align 4
  store ptr %0, ptr %4, align 8, !tbaa !51
  store i32 %1, ptr %5, align 4, !tbaa !3
  store i32 %2, ptr %6, align 4, !tbaa !3
  call void @llvm.lifetime.start.p0(i64 4, ptr %7) #11
  %14 = load i32, ptr %5, align 4, !tbaa !3
  %15 = call i32 @If_CluWordNum(i32 noundef %14)
  store i32 %15, ptr %7, align 4, !tbaa !3
  %16 = load i32, ptr %6, align 4, !tbaa !3
  %17 = icmp slt i32 %16, 6
  br i1 %17, label %18, label %62

18:                                               ; preds = %3
  call void @llvm.lifetime.start.p0(i64 4, ptr %8) #11
  call void @llvm.lifetime.start.p0(i64 4, ptr %9) #11
  %19 = load i32, ptr %6, align 4, !tbaa !3
  %20 = shl i32 1, %19
  store i32 %20, ptr %9, align 4, !tbaa !3
  store i32 0, ptr %8, align 4, !tbaa !3
  br label %21

21:                                               ; preds = %58, %18
  %22 = load i32, ptr %8, align 4, !tbaa !3
  %23 = load i32, ptr %7, align 4, !tbaa !3
  %24 = icmp slt i32 %22, %23
  br i1 %24, label %25, label %61

25:                                               ; preds = %21
  %26 = load ptr, ptr %4, align 8, !tbaa !51
  %27 = load i32, ptr %8, align 4, !tbaa !3
  %28 = sext i32 %27 to i64
  %29 = getelementptr inbounds i64, ptr %26, i64 %28
  %30 = load i64, ptr %29, align 8, !tbaa !79
  %31 = load i32, ptr %6, align 4, !tbaa !3
  %32 = sext i32 %31 to i64
  %33 = getelementptr inbounds [6 x i64], ptr @Truth6, i64 0, i64 %32
  %34 = load i64, ptr %33, align 8, !tbaa !79
  %35 = xor i64 %34, -1
  %36 = and i64 %30, %35
  %37 = load i32, ptr %9, align 4, !tbaa !3
  %38 = zext i32 %37 to i64
  %39 = shl i64 %36, %38
  %40 = load ptr, ptr %4, align 8, !tbaa !51
  %41 = load i32, ptr %8, align 4, !tbaa !3
  %42 = sext i32 %41 to i64
  %43 = getelementptr inbounds i64, ptr %40, i64 %42
  %44 = load i64, ptr %43, align 8, !tbaa !79
  %45 = load i32, ptr %6, align 4, !tbaa !3
  %46 = sext i32 %45 to i64
  %47 = getelementptr inbounds [6 x i64], ptr @Truth6, i64 0, i64 %46
  %48 = load i64, ptr %47, align 8, !tbaa !79
  %49 = and i64 %44, %48
  %50 = load i32, ptr %9, align 4, !tbaa !3
  %51 = zext i32 %50 to i64
  %52 = lshr i64 %49, %51
  %53 = or i64 %39, %52
  %54 = load ptr, ptr %4, align 8, !tbaa !51
  %55 = load i32, ptr %8, align 4, !tbaa !3
  %56 = sext i32 %55 to i64
  %57 = getelementptr inbounds i64, ptr %54, i64 %56
  store i64 %53, ptr %57, align 8, !tbaa !79
  br label %58

58:                                               ; preds = %25
  %59 = load i32, ptr %8, align 4, !tbaa !3
  %60 = add nsw i32 %59, 1
  store i32 %60, ptr %8, align 4, !tbaa !3
  br label %21, !llvm.loop !81

61:                                               ; preds = %21
  call void @llvm.lifetime.end.p0(i64 4, ptr %9) #11
  call void @llvm.lifetime.end.p0(i64 4, ptr %8) #11
  br label %114

62:                                               ; preds = %3
  call void @llvm.lifetime.start.p0(i64 8, ptr %10) #11
  call void @llvm.lifetime.start.p0(i64 4, ptr %11) #11
  call void @llvm.lifetime.start.p0(i64 4, ptr %12) #11
  call void @llvm.lifetime.start.p0(i64 4, ptr %13) #11
  %63 = load i32, ptr %6, align 4, !tbaa !3
  %64 = sub nsw i32 %63, 6
  %65 = shl i32 1, %64
  store i32 %65, ptr %13, align 4, !tbaa !3
  store i32 0, ptr %12, align 4, !tbaa !3
  br label %66

66:                                               ; preds = %108, %62
  %67 = load i32, ptr %12, align 4, !tbaa !3
  %68 = load i32, ptr %7, align 4, !tbaa !3
  %69 = icmp slt i32 %67, %68
  br i1 %69, label %70, label %113

70:                                               ; preds = %66
  store i32 0, ptr %11, align 4, !tbaa !3
  br label %71

71:                                               ; preds = %99, %70
  %72 = load i32, ptr %11, align 4, !tbaa !3
  %73 = load i32, ptr %13, align 4, !tbaa !3
  %74 = icmp slt i32 %72, %73
  br i1 %74, label %75, label %102

75:                                               ; preds = %71
  %76 = load ptr, ptr %4, align 8, !tbaa !51
  %77 = load i32, ptr %11, align 4, !tbaa !3
  %78 = sext i32 %77 to i64
  %79 = getelementptr inbounds i64, ptr %76, i64 %78
  %80 = load i64, ptr %79, align 8, !tbaa !79
  store i64 %80, ptr %10, align 8, !tbaa !79
  %81 = load ptr, ptr %4, align 8, !tbaa !51
  %82 = load i32, ptr %13, align 4, !tbaa !3
  %83 = load i32, ptr %11, align 4, !tbaa !3
  %84 = add nsw i32 %82, %83
  %85 = sext i32 %84 to i64
  %86 = getelementptr inbounds i64, ptr %81, i64 %85
  %87 = load i64, ptr %86, align 8, !tbaa !79
  %88 = load ptr, ptr %4, align 8, !tbaa !51
  %89 = load i32, ptr %11, align 4, !tbaa !3
  %90 = sext i32 %89 to i64
  %91 = getelementptr inbounds i64, ptr %88, i64 %90
  store i64 %87, ptr %91, align 8, !tbaa !79
  %92 = load i64, ptr %10, align 8, !tbaa !79
  %93 = load ptr, ptr %4, align 8, !tbaa !51
  %94 = load i32, ptr %13, align 4, !tbaa !3
  %95 = load i32, ptr %11, align 4, !tbaa !3
  %96 = add nsw i32 %94, %95
  %97 = sext i32 %96 to i64
  %98 = getelementptr inbounds i64, ptr %93, i64 %97
  store i64 %92, ptr %98, align 8, !tbaa !79
  br label %99

99:                                               ; preds = %75
  %100 = load i32, ptr %11, align 4, !tbaa !3
  %101 = add nsw i32 %100, 1
  store i32 %101, ptr %11, align 4, !tbaa !3
  br label %71, !llvm.loop !82

102:                                              ; preds = %71
  %103 = load i32, ptr %13, align 4, !tbaa !3
  %104 = mul nsw i32 2, %103
  %105 = load ptr, ptr %4, align 8, !tbaa !51
  %106 = sext i32 %104 to i64
  %107 = getelementptr inbounds i64, ptr %105, i64 %106
  store ptr %107, ptr %4, align 8, !tbaa !51
  br label %108

108:                                              ; preds = %102
  %109 = load i32, ptr %13, align 4, !tbaa !3
  %110 = mul nsw i32 2, %109
  %111 = load i32, ptr %12, align 4, !tbaa !3
  %112 = add nsw i32 %111, %110
  store i32 %112, ptr %12, align 4, !tbaa !3
  br label %66, !llvm.loop !83

113:                                              ; preds = %66
  call void @llvm.lifetime.end.p0(i64 4, ptr %13) #11
  call void @llvm.lifetime.end.p0(i64 4, ptr %12) #11
  call void @llvm.lifetime.end.p0(i64 4, ptr %11) #11
  call void @llvm.lifetime.end.p0(i64 8, ptr %10) #11
  br label %114

114:                                              ; preds = %113, %61
  call void @llvm.lifetime.end.p0(i64 4, ptr %7) #11
  ret void
}