; Function Attrs: nofree norecurse nosync nounwind memory(argmem: readwrite) uwtable
define void @If_CluChangePhase(ptr noundef captures(none) %0, i32 noundef %1, i32 noundef %2) local_unnamed_addr #10 {
  %4 = icmp slt i32 %1, 7
  %5 = add nsw i32 %1, -6
  %6 = shl nuw i32 1, %5
  %7 = select i1 %4, i32 1, i32 %6
  %8 = icmp slt i32 %2, 6
  br i1 %8, label %9, label %25

9:                                                ; preds = %3
  %10 = icmp sgt i32 %7, 0
  br i1 %10, label %.lr.ph, label %.loopexit

.lr.ph:                                           ; preds = %9
  %11 = shl nuw nsw i32 1, %2
  %12 = sext i32 %2 to i64
  %13 = getelementptr inbounds [6 x i64], ptr @s_Truths6, i64 0, i64 %12
  %14 = load i64, ptr %13, align 8, !tbaa !16
  %15 = xor i64 %14, -1
  %16 = zext nneg i32 %11 to i64
  %wide.trip.count53 = zext nneg i32 %7 to i64
  br label %17

17:                                               ; preds = %.lr.ph, %17
  %indvars.iv50 = phi i64 [ 0, %.lr.ph ], [ %indvars.iv.next51, %17 ]
  %18 = getelementptr inbounds nuw i64, ptr %0, i64 %indvars.iv50
  %19 = load i64, ptr %18, align 8, !tbaa !16
  %20 = and i64 %19, %15
  %21 = shl i64 %20, %16
  %22 = and i64 %14, %19
  %23 = lshr i64 %22, %16
  %24 = or i64 %21, %23
  store i64 %24, ptr %18, align 8, !tbaa !16
  %indvars.iv.next51 = add nuw nsw i64 %indvars.iv50, 1
  %exitcond54.not = icmp eq i64 %indvars.iv.next51, %wide.trip.count53
  br i1 %exitcond54.not, label %.loopexit, label %17, !llvm.loop !87

25:                                               ; preds = %3
  %26 = add nsw i32 %2, -6
  %27 = shl nuw i32 1, %26
  %28 = icmp sgt i32 %7, 0
  br i1 %28, label %.preheader.lr.ph, label %.loopexit

.preheader.lr.ph:                                 ; preds = %25
  %.not = icmp eq i32 %26, 31
  %29 = shl i32 2, %26
  %30 = sext i32 %29 to i64
  br i1 %.not, label %.loopexit, label %.preheader.us.preheader

.preheader.us.preheader:                          ; preds = %.preheader.lr.ph
  %31 = sext i32 %27 to i64
  %smax = tail call i32 @llvm.smax.i32(i32 %27, i32 1)
  %wide.trip.count = zext nneg i32 %smax to i64
  br label %.preheader.us

.preheader.us:                                    ; preds = %.preheader.us.preheader, %._crit_edge.us
  %.045.us = phi ptr [ %36, %._crit_edge.us ], [ %0, %.preheader.us.preheader ]
  %.03644.us = phi i32 [ %37, %._crit_edge.us ], [ 0, %.preheader.us.preheader ]
  %invariant.gep = getelementptr i64, ptr %.045.us, i64 %31
  br label %32

32:                                               ; preds = %.preheader.us, %32
  %indvars.iv = phi i64 [ 0, %.preheader.us ], [ %indvars.iv.next, %32 ]
  %33 = getelementptr inbounds nuw i64, ptr %.045.us, i64 %indvars.iv
  %34 = load i64, ptr %33, align 8, !tbaa !16
  %gep = getelementptr i64, ptr %invariant.gep, i64 %indvars.iv
  %35 = load i64, ptr %gep, align 8, !tbaa !16
  store i64 %35, ptr %33, align 8, !tbaa !16
  store i64 %34, ptr %gep, align 8, !tbaa !16
  %indvars.iv.next = add nuw nsw i64 %indvars.iv, 1
  %exitcond.not = icmp eq i64 %indvars.iv.next, %wide.trip.count
  br i1 %exitcond.not, label %._crit_edge.us, label %32, !llvm.loop !88

._crit_edge.us:                                   ; preds = %32
  %36 = getelementptr inbounds i64, ptr %.045.us, i64 %30
  %37 = add nsw i32 %.03644.us, %29
  %38 = icmp slt i32 %37, %7
  br i1 %38, label %.preheader.us, label %.loopexit, !llvm.loop !89

.loopexit:                                        ; preds = %._crit_edge.us, %17, %.preheader.lr.ph, %25, %9
  ret void
}